(dp0
S'KingKade'
p1
(iJoustL.JoustObjects
Player
p2
(dp3
S'lance'
p4
S'high'
p5
sS'currentLance'
p6
I0
sS'strength'
p7
I3
sS'lanceList'
p8
(lp9
S'Drift Wood'
p10
asS'name'
p11
g1
sS'coins'
p12
I0
sS'currentShield'
p13
I1
sS'progress'
p14
(dp15
S'Isengard'
p16
I0
sS'Norfolk'
p17
I2
sS'Yorkshire'
p18
I0
ssS'shieldList'
p19
(lp20
S'Animal Hide'
p21
aS'Barbarians'
p22
asS'shield'
p23
g5
sbs.